; Function Attrs: mustprogress nounwind uwtable
define internal noundef ptr @_ZN12_GLOBAL__N_19TypeMapTy9remapTypeEPN4llvm4TypeE(ptr noundef nonnull align 8 dereferenceable(632) %0, ptr noundef %1) unnamed_addr #1 align 2 {
  %3 = alloca %"class.llvm::SmallPtrSet.197", align 8
  call void @llvm.lifetime.start.p0(i64 96, ptr nonnull %3)
  %4 = getelementptr inbounds nuw i8, ptr %3, i64 32
  store ptr %4, ptr %3, align 8
  %5 = getelementptr inbounds nuw i8, ptr %3, i64 8
  store ptr %4, ptr %5, align 8
  %6 = getelementptr inbounds nuw i8, ptr %3, i64 16
  store i32 8, ptr %6, align 8
  %7 = getelementptr inbounds nuw i8, ptr %3, i64 20
  store i32 0, ptr %7, align 4
  %8 = getelementptr inbounds nuw i8, ptr %3, i64 24
  store i32 0, ptr %8, align 8
  %9 = call fastcc noundef ptr @_ZN12_GLOBAL__N_19TypeMapTy3getEPN4llvm4TypeERNS1_11SmallPtrSetIPNS1_10StructTypeELj8EEE(ptr noundef nonnull align 8 dereferenceable(632) %0, ptr noundef %1, ptr noundef nonnull align 8 dereferenceable(96) %3)
  %10 = load ptr, ptr %5, align 8
  %11 = load ptr, ptr %3, align 8
  %12 = icmp eq ptr %10, %11
  br i1 %12, label %_ZN12_GLOBAL__N_19TypeMapTy3getEPN4llvm4TypeE.exit, label %13

13:                                               ; preds = %2
  call void @free(ptr noundef %10) #18
  br label %_ZN12_GLOBAL__N_19TypeMapTy3getEPN4llvm4TypeE.exit

_ZN12_GLOBAL__N_19TypeMapTy3getEPN4llvm4TypeE.exit: ; preds = %2, %13
  call void @llvm.lifetime.end.p0(i64 96, ptr nonnull %3)
  ret ptr %9
}